target datalayout = "e-m:e-p270:32:32-p271:32:32-p272:64:64-i64:64-i128:128-f80:128-n8:16:32:64-S128"
target triple = "x86_64-pc-linux-gnu"

%union.pthread_mutex_t = type { %struct.__pthread_mutex_s }
%struct.__pthread_mutex_s = type { i32, i32, i32, i32, i32, i16, i16, %struct.__pthread_internal_list }
%struct.__pthread_internal_list = type { ptr, ptr }
%struct.grep_source = type { ptr, i32, ptr, ptr, ptr, i64, ptr, ptr }

@.str.13 = private unnamed_addr constant [8 x i8] c"default\00", align 1
@grep_use_locks = dso_local global i32 0, align 4
@grep_attr_mutex = dso_local global %union.pthread_mutex_t zeroinitializer, align 8

; Function Attrs: inlinehint nounwind uwtable
define internal void @grep_attr_unlock() #2 {
  %1 = load i32, ptr @grep_use_locks, align 4, !tbaa !33
  %2 = icmp ne i32 %1, 0
  br i1 %2, label %3, label %5

3:                                                ; preds = %0
  %4 = call i32 @pthread_mutex_unlock(ptr noundef @grep_attr_mutex) #11
  br label %5

5:                                                ; preds = %3, %0
  ret void
}

; Function Attrs: inlinehint nounwind uwtable
define internal void @grep_attr_lock() #2 {
  %1 = load i32, ptr @grep_use_locks, align 4, !tbaa !33
  %2 = icmp ne i32 %1, 0
  br i1 %2, label %3, label %5

3:                                                ; preds = %0
  %4 = call i32 @pthread_mutex_lock(ptr noundef @grep_attr_mutex) #11
  br label %5

5:                                                ; preds = %3, %0
  ret void
}

; Function Attrs: nounwind uwtable
define dso_local void @grep_source_load_driver(ptr noundef %0, ptr noundef %1) #0 {
  %3 = alloca ptr, align 8
  %4 = alloca ptr, align 8
  store ptr %0, ptr %3, align 8, !tbaa !85
  store ptr %1, ptr %4, align 8, !tbaa !140
  %5 = load ptr, ptr %3, align 8, !tbaa !85
  %6 = getelementptr inbounds nuw %struct.grep_source, ptr %5, i32 0, i32 7
  %7 = load ptr, ptr %6, align 8, !tbaa !119
  %8 = icmp ne ptr %7, null
  br i1 %8, label %9, label %10

9:                                                ; preds = %2
  br label %33

10:                                               ; preds = %2
  call void @grep_attr_lock()
  %11 = load ptr, ptr %3, align 8, !tbaa !85
  %12 = getelementptr inbounds nuw %struct.grep_source, ptr %11, i32 0, i32 6
  %13 = load ptr, ptr %12, align 8, !tbaa !135
  %14 = icmp ne ptr %13, null
  br i1 %14, label %15, label %23

15:                                               ; preds = %10
  %16 = load ptr, ptr %4, align 8, !tbaa !140
  %17 = load ptr, ptr %3, align 8, !tbaa !85
  %18 = getelementptr inbounds nuw %struct.grep_source, ptr %17, i32 0, i32 6
  %19 = load ptr, ptr %18, align 8, !tbaa !135
  %20 = call ptr @userdiff_find_by_path(ptr noundef %16, ptr noundef %19)
  %21 = load ptr, ptr %3, align 8, !tbaa !85
  %22 = getelementptr inbounds nuw %struct.grep_source, ptr %21, i32 0, i32 7
  store ptr %20, ptr %22, align 8, !tbaa !119
  br label %23

23:                                               ; preds = %15, %10
  %24 = load ptr, ptr %3, align 8, !tbaa !85
  %25 = getelementptr inbounds nuw %struct.grep_source, ptr %24, i32 0, i32 7
  %26 = load ptr, ptr %25, align 8, !tbaa !119
  %27 = icmp ne ptr %26, null
  br i1 %27, label %32, label %28

28:                                               ; preds = %23
  %29 = call ptr @userdiff_find_by_name(ptr noundef @.str.13)
  %30 = load ptr, ptr %3, align 8, !tbaa !85
  %31 = getelementptr inbounds nuw %struct.grep_source, ptr %30, i32 0, i32 7
  store ptr %29, ptr %31, align 8, !tbaa !119
  br label %32

32:                                               ; preds = %28, %23
  call void @grep_attr_unlock()
  br label %33

33:                                               ; preds = %32, %9
  ret void
}