; Function Attrs: nounwind uwtable
define dso_local void @grep_source_load_driver(ptr noundef captures(none) %0, ptr noundef %1) local_unnamed_addr #0 {
  %3 = getelementptr inbounds nuw i8, ptr %0, i64 56
  %4 = load ptr, ptr %3, align 8, !tbaa !106
  %.not = icmp eq ptr %4, null
  br i1 %.not, label %5, label %grep_attr_unlock.exit

5:                                                ; preds = %2
  %6 = load i32, ptr @grep_use_locks, align 4, !tbaa !49
  %.not.i = icmp eq i32 %6, 0
  br i1 %.not.i, label %grep_attr_lock.exit, label %7

7:                                                ; preds = %5
  %8 = tail call i32 @pthread_mutex_lock(ptr noundef nonnull @grep_attr_mutex) #18
  br label %grep_attr_lock.exit

grep_attr_lock.exit:                              ; preds = %5, %7
  %9 = getelementptr inbounds nuw i8, ptr %0, i64 48
  %10 = load ptr, ptr %9, align 8, !tbaa !107
  %.not7 = icmp eq ptr %10, null
  br i1 %.not7, label %thread-pre-split, label %11

11:                                               ; preds = %grep_attr_lock.exit
  %12 = tail call ptr @userdiff_find_by_path(ptr noundef %1, ptr noundef nonnull %10) #18
  store ptr %12, ptr %3, align 8, !tbaa !106
  br label %13

thread-pre-split:                                 ; preds = %grep_attr_lock.exit
  %.pr = load ptr, ptr %3, align 8, !tbaa !106
  br label %13

13:                                               ; preds = %thread-pre-split, %11
  %14 = phi ptr [ %.pr, %thread-pre-split ], [ %12, %11 ]
  %.not8 = icmp eq ptr %14, null
  br i1 %.not8, label %15, label %17

15:                                               ; preds = %13
  %16 = tail call ptr @userdiff_find_by_name(ptr noundef nonnull @.str.13) #18
  store ptr %16, ptr %3, align 8, !tbaa !106
  br label %17

17:                                               ; preds = %15, %13
  %18 = load i32, ptr @grep_use_locks, align 4, !tbaa !49
  %.not.i9 = icmp eq i32 %18, 0
  br i1 %.not.i9, label %grep_attr_unlock.exit, label %19

19:                                               ; preds = %17
  %20 = tail call i32 @pthread_mutex_unlock(ptr noundef nonnull @grep_attr_mutex) #18
  br label %grep_attr_unlock.exit

grep_attr_unlock.exit:                            ; preds = %19, %17, %2
  ret void
}